; Function Attrs: mustprogress uwtable
define void @_ZNK8QuantLib6CmsLegcvSt6vectorIN5boost10shared_ptrINS_8CashFlowEEESaIS5_EEEv(ptr dead_on_unwind noalias writable sret(%"class.std::vector.43") align 8 %agg.result, ptr noundef nonnull align 8 dereferenceable(357) %this) local_unnamed_addr #8 align 2 personality ptr @__gxx_personality_v0 {
entry:
  %agg.tmp = alloca %"class.QuantLib::Calendar", align 8
  %agg.tmp4 = alloca %"class.QuantLib::Calendar", align 8
  %notionals_ = getelementptr inbounds nuw i8, ptr %this, i64 152
  %swapIndex_ = getelementptr inbounds nuw i8, ptr %this, i64 136
  %paymentDayCounter_ = getelementptr inbounds nuw i8, ptr %this, i64 176
  %paymentAdjustment_ = getelementptr inbounds nuw i8, ptr %this, i64 192
  %0 = load i32, ptr %paymentAdjustment_, align 8, !tbaa !84
  %fixingDays_ = getelementptr inbounds nuw i8, ptr %this, i64 200
  %gearings_ = getelementptr inbounds nuw i8, ptr %this, i64 224
  %spreads_ = getelementptr inbounds nuw i8, ptr %this, i64 248
  %caps_ = getelementptr inbounds nuw i8, ptr %this, i64 272
  %floors_ = getelementptr inbounds nuw i8, ptr %this, i64 296
  %inArrears_ = getelementptr inbounds nuw i8, ptr %this, i64 320
  %1 = load i8, ptr %inArrears_, align 8, !tbaa !112, !range !26, !noundef !27
  %loadedv = trunc nuw i8 %1 to i1
  %zeroPayments_ = getelementptr inbounds nuw i8, ptr %this, i64 321
  %2 = load i8, ptr %zeroPayments_, align 1, !tbaa !113, !range !26, !noundef !27
  %loadedv2 = trunc nuw i8 %2 to i1
  %exCouponPeriod_ = getelementptr inbounds nuw i8, ptr %this, i64 324
  call void @llvm.memset.p0.i64(ptr noundef nonnull align 8 dereferenceable(16) %agg.tmp, i8 0, i64 16, i1 false)
  %agg.tmp3.sroa.0.0.copyload = load i64, ptr %exCouponPeriod_, align 4
  %exCouponCalendar_ = getelementptr inbounds nuw i8, ptr %this, i64 336
  %3 = load ptr, ptr %exCouponCalendar_, align 8, !tbaa !59
  store ptr %3, ptr %agg.tmp4, align 8, !tbaa !59
  %pn.i.i = getelementptr inbounds nuw i8, ptr %agg.tmp4, i64 8
  %pn3.i.i = getelementptr inbounds nuw i8, ptr %this, i64 344
  %4 = load ptr, ptr %pn3.i.i, align 8, !tbaa !48
  store ptr %4, ptr %pn.i.i, align 8, !tbaa !48
  %cmp.not.i.i.i = icmp eq ptr %4, null
  br i1 %cmp.not.i.i.i, label %_ZN8QuantLib8CalendarC2ERKS0_.exit, label %if.then.i.i.i

if.then.i.i.i:                                    ; preds = %entry
  %use_count_.i.i.i.i = getelementptr inbounds nuw i8, ptr %4, i64 8
  %5 = atomicrmw add ptr %use_count_.i.i.i.i, i32 1 monotonic, align 4
  br label %_ZN8QuantLib8CalendarC2ERKS0_.exit

_ZN8QuantLib8CalendarC2ERKS0_.exit:               ; preds = %entry, %if.then.i.i.i
  %exCouponAdjustment_ = getelementptr inbounds nuw i8, ptr %this, i64 352
  %6 = load i32, ptr %exCouponAdjustment_, align 8, !tbaa !114
  %exCouponEndOfMonth_ = getelementptr inbounds nuw i8, ptr %this, i64 356
  %7 = load i8, ptr %exCouponEndOfMonth_, align 4, !tbaa !115, !range !26, !noundef !27
  %loadedv5 = trunc nuw i8 %7 to i1
  invoke void @_ZN8QuantLib11FloatingLegINS_9SwapIndexENS_9CmsCouponENS_22CappedFlooredCmsCouponEEESt6vectorIN5boost10shared_ptrINS_8CashFlowEEESaIS8_EERKNS_8ScheduleERKS4_IdSaIdEERKNS6_IT_EERKNS_10DayCounterENS_21BusinessDayConventionERKS4_IjSaIjEESH_SH_SH_SH_bbiNS_8CalendarENS_6PeriodESU_SP_b(ptr dead_on_unwind writable sret(%"class.std::vector.43") align 8 %agg.result, ptr noundef nonnull align 8 dereferenceable(136) %this, ptr noundef nonnull align 8 dereferenceable(24) %notionals_, ptr noundef nonnull align 8 dereferenceable(16) %swapIndex_, ptr noundef nonnull align 8 dereferenceable(16) %paymentDayCounter_, i32 noundef %0, ptr noundef nonnull align 8 dereferenceable(24) %fixingDays_, ptr noundef nonnull align 8 dereferenceable(24) %gearings_, ptr noundef nonnull align 8 dereferenceable(24) %spreads_, ptr noundef nonnull align 8 dereferenceable(24) %caps_, ptr noundef nonnull align 8 dereferenceable(24) %floors_, i1 noundef zeroext %loadedv, i1 noundef zeroext %loadedv2, i32 noundef 0, ptr noundef nonnull %agg.tmp, i64 %agg.tmp3.sroa.0.0.copyload, ptr noundef nonnull %agg.tmp4, i32 noundef %6, i1 noundef zeroext %loadedv5)
          to label %invoke.cont unwind label %lpad

invoke.cont:                                      ; preds = %_ZN8QuantLib8CalendarC2ERKS0_.exit
  %8 = load ptr, ptr %pn.i.i, align 8, !tbaa !48
  %cmp.not.i.i.i2 = icmp eq ptr %8, null
  br i1 %cmp.not.i.i.i2, label %_ZN8QuantLib8CalendarD2Ev.exit, label %if.then.i.i.i3

if.then.i.i.i3:                                   ; preds = %invoke.cont
  %use_count_.i.i.i.i4 = getelementptr inbounds nuw i8, ptr %8, i64 8
  %9 = atomicrmw sub ptr %use_count_.i.i.i.i4, i32 1 acq_rel, align 4
  %cmp.i.i.i.i = icmp eq i32 %9, 1
  br i1 %cmp.i.i.i.i, label %if.then.i.i.i.i, label %_ZN8QuantLib8CalendarD2Ev.exit

if.then.i.i.i.i:                                  ; preds = %if.then.i.i.i3
  %vtable.i.i.i.i = load ptr, ptr %8, align 8, !tbaa !33
  %vfn.i.i.i.i = getelementptr inbounds i8, ptr %vtable.i.i.i.i, i64 16
  %10 = load ptr, ptr %vfn.i.i.i.i, align 8
  invoke void %10(ptr noundef nonnull align 8 dereferenceable(16) %8)
          to label %.noexc.i.i.i unwind label %terminate.lpad.i.i.i

.noexc.i.i.i:                                     ; preds = %if.then.i.i.i.i
  %weak_count_.i.i.i.i.i = getelementptr inbounds nuw i8, ptr %8, i64 12
  %11 = atomicrmw sub ptr %weak_count_.i.i.i.i.i, i32 1 acq_rel, align 4
  %cmp.i.i.i.i.i = icmp eq i32 %11, 1
  br i1 %cmp.i.i.i.i.i, label %if.then.i.i.i.i.i, label %_ZN8QuantLib8CalendarD2Ev.exit

if.then.i.i.i.i.i:                                ; preds = %.noexc.i.i.i
  %vtable.i.i.i.i.i = load ptr, ptr %8, align 8, !tbaa !33
  %vfn.i.i.i.i.i = getelementptr inbounds i8, ptr %vtable.i.i.i.i.i, i64 24
  %12 = load ptr, ptr %vfn.i.i.i.i.i, align 8
  invoke void %12(ptr noundef nonnull align 8 dereferenceable(16) %8)
          to label %_ZN8QuantLib8CalendarD2Ev.exit unwind label %terminate.lpad.i.i.i

terminate.lpad.i.i.i:                             ; preds = %if.then.i.i.i.i.i, %if.then.i.i.i.i
  %13 = landingpad { ptr, i32 }
          catch ptr null
  %14 = extractvalue { ptr, i32 } %13, 0
  call void @__clang_call_terminate(ptr %14) #29
  unreachable

_ZN8QuantLib8CalendarD2Ev.exit:                   ; preds = %invoke.cont, %if.then.i.i.i3, %.noexc.i.i.i, %if.then.i.i.i.i.i
  %pn.i.i5 = getelementptr inbounds nuw i8, ptr %agg.tmp, i64 8
  %15 = load ptr, ptr %pn.i.i5, align 8, !tbaa !48
  %cmp.not.i.i.i6 = icmp eq ptr %15, null
  br i1 %cmp.not.i.i.i6, label %_ZN8QuantLib8CalendarD2Ev.exit20, label %if.then.i.i.i7

if.then.i.i.i7:                                   ; preds = %_ZN8QuantLib8CalendarD2Ev.exit
  %use_count_.i.i.i.i8 = getelementptr inbounds nuw i8, ptr %15, i64 8
  %16 = atomicrmw sub ptr %use_count_.i.i.i.i8, i32 1 acq_rel, align 4
  %cmp.i.i.i.i9 = icmp eq i32 %16, 1
  br i1 %cmp.i.i.i.i9, label %if.then.i.i.i.i10, label %_ZN8QuantLib8CalendarD2Ev.exit20

if.then.i.i.i.i10:                                ; preds = %if.then.i.i.i7
  %vtable.i.i.i.i11 = load ptr, ptr %15, align 8, !tbaa !33
  %vfn.i.i.i.i12 = getelementptr inbounds i8, ptr %vtable.i.i.i.i11, i64 16
  %17 = load ptr, ptr %vfn.i.i.i.i12, align 8
  invoke void %17(ptr noundef nonnull align 8 dereferenceable(16) %15)
          to label %.noexc.i.i.i14 unwind label %terminate.lpad.i.i.i13

.noexc.i.i.i14:                                   ; preds = %if.then.i.i.i.i10
  %weak_count_.i.i.i.i.i15 = getelementptr inbounds nuw i8, ptr %15, i64 12
  %18 = atomicrmw sub ptr %weak_count_.i.i.i.i.i15, i32 1 acq_rel, align 4
  %cmp.i.i.i.i.i16 = icmp eq i32 %18, 1
  br i1 %cmp.i.i.i.i.i16, label %if.then.i.i.i.i.i17, label %_ZN8QuantLib8CalendarD2Ev.exit20

if.then.i.i.i.i.i17:                              ; preds = %.noexc.i.i.i14
  %vtable.i.i.i.i.i18 = load ptr, ptr %15, align 8, !tbaa !33
  %vfn.i.i.i.i.i19 = getelementptr inbounds i8, ptr %vtable.i.i.i.i.i18, i64 24
  %19 = load ptr, ptr %vfn.i.i.i.i.i19, align 8
  invoke void %19(ptr noundef nonnull align 8 dereferenceable(16) %15)
          to label %_ZN8QuantLib8CalendarD2Ev.exit20 unwind label %terminate.lpad.i.i.i13

terminate.lpad.i.i.i13:                           ; preds = %if.then.i.i.i.i.i17, %if.then.i.i.i.i10
  %20 = landingpad { ptr, i32 }
          catch ptr null
  %21 = extractvalue { ptr, i32 } %20, 0
  call void @__clang_call_terminate(ptr %21) #29
  unreachable

_ZN8QuantLib8CalendarD2Ev.exit20:                 ; preds = %_ZN8QuantLib8CalendarD2Ev.exit, %if.then.i.i.i7, %.noexc.i.i.i14, %if.then.i.i.i.i.i17
  ret void

lpad:                                             ; preds = %_ZN8QuantLib8CalendarC2ERKS0_.exit
  %22 = landingpad { ptr, i32 }
          cleanup
  call void @_ZN8QuantLib8CalendarD2Ev(ptr noundef nonnull align 8 dereferenceable(16) %agg.tmp4) #28
  call void @_ZN8QuantLib8CalendarD2Ev(ptr noundef nonnull align 8 dereferenceable(16) %agg.tmp) #28
  resume { ptr, i32 } %22
}